; Function Attrs: nounwind uwtable
define internal i32 @dom_nodemap_has_dimension(ptr noundef %0, ptr noundef %1, i32 %2) #1 {
  %4 = alloca double, align 8
  %5 = alloca i64, align 8
  %6 = getelementptr inbounds i8, ptr %1, i64 8
  %7 = load i8, ptr %6, align 8
  %8 = icmp eq i8 %7, 10
  br i1 %8, label %9, label %12

9:                                                ; preds = %3
  %10 = load ptr, ptr %1, align 8
  %11 = getelementptr inbounds i8, ptr %10, i64 8
  %.phi.trans.insert = getelementptr inbounds i8, ptr %10, i64 16
  %.pre = load i8, ptr %.phi.trans.insert, align 8
  br label %12

12:                                               ; preds = %3, %9
  %13 = phi i8 [ %.pre, %9 ], [ %7, %3 ]
  %.07 = phi ptr [ %11, %9 ], [ %1, %3 ]
  call void @llvm.lifetime.start.p0(i64 8, ptr nonnull %4)
  switch i8 %13, label %36 [
    i8 6, label %14
    i8 4, label %34
  ]

14:                                               ; preds = %12
  %15 = load ptr, ptr %.07, align 8
  %16 = getelementptr inbounds i8, ptr %15, i64 24
  %17 = load i8, ptr %16, align 1
  %18 = icmp sgt i8 %17, 57
  br i1 %18, label %38, label %19

19:                                               ; preds = %14
  %20 = getelementptr inbounds i8, ptr %15, i64 16
  %21 = load i64, ptr %20, align 8
  %22 = call zeroext i8 @_is_numeric_string_ex(ptr noundef nonnull %16, i64 noundef %21, ptr noundef nonnull %5, ptr noundef nonnull %4, i1 noundef zeroext true, ptr noundef null, ptr noundef null) #16
  switch i8 %22, label %thread-pre-split [
    i8 0, label %._crit_edge
    i8 5, label %23
  ]

._crit_edge:                                      ; preds = %19
  %.pre10 = load ptr, ptr %.07, align 8
  br label %38

23:                                               ; preds = %19
  %24 = load double, ptr %4, align 8
  %25 = call double @llvm.fabs.f64(double %24)
  %or.cond40.i = fcmp ueq double %25, 0x7FF0000000000000
  br i1 %or.cond40.i, label %.sink.split.i, label %26

26:                                               ; preds = %23
  %27 = fcmp oge double %24, 0x43E0000000000000
  %28 = fcmp olt double %24, 0xC3E0000000000000
  %or.cond.i = or i1 %27, %28
  br i1 %or.cond.i, label %29, label %32

29:                                               ; preds = %26
  %30 = fcmp ogt double %24, 0.000000e+00
  %31 = select i1 %30, i64 9223372036854775807, i64 -9223372036854775808
  br label %.sink.split.i

32:                                               ; preds = %26
  %33 = fptosi double %24 to i64
  br label %.sink.split.i

34:                                               ; preds = %12
  %35 = load i64, ptr %.07, align 8
  br label %.sink.split.i

36:                                               ; preds = %12
  %37 = tail call i64 @zval_get_long_func(ptr noundef nonnull %.07, i1 noundef zeroext false) #16
  br label %.sink.split.i

.sink.split.i:                                    ; preds = %36, %34, %32, %29, %23
  %.035.sink.i = phi i64 [ %31, %29 ], [ %33, %32 ], [ 0, %23 ], [ %35, %34 ], [ %37, %36 ]
  store i64 %.035.sink.i, ptr %5, align 8
  br label %45

38:                                               ; preds = %._crit_edge, %14
  %39 = phi ptr [ %.pre10, %._crit_edge ], [ %15, %14 ]
  call void @llvm.lifetime.end.p0(i64 8, ptr nonnull %4)
  %40 = getelementptr inbounds i8, ptr %0, i64 -24
  %41 = load ptr, ptr %40, align 8
  %42 = getelementptr inbounds i8, ptr %39, i64 24
  %43 = call ptr @php_dom_named_node_map_get_named_item(ptr noundef %41, ptr noundef nonnull %42, i1 noundef zeroext false) #16
  %44 = icmp ne ptr %43, null
  br label %53

thread-pre-split:                                 ; preds = %19
  %.pr = load i64, ptr %5, align 8
  br label %45

45:                                               ; preds = %thread-pre-split, %.sink.split.i
  %46 = phi i64 [ %.pr, %thread-pre-split ], [ %.035.sink.i, %.sink.split.i ]
  call void @llvm.lifetime.end.p0(i64 8, ptr nonnull %4)
  %47 = icmp sgt i64 %46, -1
  br i1 %47, label %48, label %53

48:                                               ; preds = %45
  %49 = getelementptr inbounds i8, ptr %0, i64 -24
  %50 = call i32 @php_dom_get_namednodemap_length(ptr noundef nonnull %49) #16
  %51 = sext i32 %50 to i64
  %52 = icmp slt i64 %46, %51
  br label %53

53:                                               ; preds = %45, %48, %38
  %.0.shrunk = phi i1 [ %44, %38 ], [ false, %45 ], [ %52, %48 ]
  %.0 = zext i1 %.0.shrunk to i32
  ret i32 %.0
}